; Function Attrs: mustprogress uwtable
define void @cvStartWriteSeq(i32 noundef %0, i32 noundef %1, i32 noundef %2, ptr noundef %3, ptr noundef writeonly %4) local_unnamed_addr #0 personality ptr @__gxx_personality_v0 {
  %6 = alloca %"class.std::__cxx11::basic_string", align 8
  %7 = alloca %"class.std::allocator", align 1
  %8 = alloca %"class.std::__cxx11::basic_string", align 8
  %9 = alloca %"class.std::allocator", align 1
  %10 = icmp ne ptr %3, null
  %11 = icmp ne ptr %4, null
  %or.cond = and i1 %10, %11
  br i1 %or.cond, label %25, label %12

12:                                               ; preds = %5
  call void @llvm.lifetime.start.p0(i64 32, ptr nonnull %8) #11
  call void @llvm.lifetime.start.p0(i64 1, ptr nonnull %9) #11
  invoke void @_ZNSt7__cxx1112basic_stringIcSt11char_traitsIcESaIcEEC2EPKcRKS3_(ptr noundef nonnull align 8 dereferenceable(32) %8, ptr noundef nonnull @.str, ptr noundef nonnull align 1 dereferenceable(1) %9)
          to label %13 unwind label %15

13:                                               ; preds = %12
  invoke void @_ZN2cv5errorEiRKNSt7__cxx1112basic_stringIcSt11char_traitsIcESaIcEEEPKcS9_i(i32 noundef -27, ptr noundef nonnull align 8 dereferenceable(32) %8, ptr noundef nonnull @__func__.cvStartWriteSeq, ptr noundef nonnull @.str.1, i32 noundef 838) #12
          to label %14 unwind label %17

14:                                               ; preds = %13
  unreachable

15:                                               ; preds = %12
  %16 = landingpad { ptr, i32 }
          cleanup
  br label %_ZNSt7__cxx1112basic_stringIcSt11char_traitsIcESaIcEED2Ev.exit

17:                                               ; preds = %13
  %18 = landingpad { ptr, i32 }
          cleanup
  %19 = load ptr, ptr %8, align 8, !tbaa !3
  %20 = getelementptr inbounds nuw i8, ptr %8, i64 16
  %21 = icmp eq ptr %19, %20
  br i1 %21, label %_ZNKSt7__cxx1112basic_stringIcSt11char_traitsIcESaIcEE11_M_is_localEv.exit.thread.i.i, label %_ZNKSt7__cxx1112basic_stringIcSt11char_traitsIcESaIcEE11_M_is_localEv.exit.i.i

_ZNKSt7__cxx1112basic_stringIcSt11char_traitsIcESaIcEE11_M_is_localEv.exit.thread.i.i: ; preds = %17
  %22 = getelementptr inbounds nuw i8, ptr %8, i64 8
  %23 = load i64, ptr %22, align 8, !tbaa !11
  %24 = icmp ult i64 %23, 16
  call void @llvm.assume(i1 %24)
  br label %_ZNSt7__cxx1112basic_stringIcSt11char_traitsIcESaIcEED2Ev.exit

_ZNKSt7__cxx1112basic_stringIcSt11char_traitsIcESaIcEE11_M_is_localEv.exit.i.i: ; preds = %17
  call void @_ZdlPv(ptr noundef %19) #13
  br label %_ZNSt7__cxx1112basic_stringIcSt11char_traitsIcESaIcEED2Ev.exit

common.resume:                                    ; preds = %_ZNSt7__cxx1112basic_stringIcSt11char_traitsIcESaIcEED2Ev.exit.i, %_ZNSt7__cxx1112basic_stringIcSt11char_traitsIcESaIcEED2Ev.exit
  %common.resume.op = phi { ptr, i32 } [ %.pn, %_ZNSt7__cxx1112basic_stringIcSt11char_traitsIcESaIcEED2Ev.exit ], [ %32, %_ZNSt7__cxx1112basic_stringIcSt11char_traitsIcESaIcEED2Ev.exit.i ]
  resume { ptr, i32 } %common.resume.op

_ZNSt7__cxx1112basic_stringIcSt11char_traitsIcESaIcEED2Ev.exit: ; preds = %_ZNKSt7__cxx1112basic_stringIcSt11char_traitsIcESaIcEE11_M_is_localEv.exit.i.i, %_ZNKSt7__cxx1112basic_stringIcSt11char_traitsIcESaIcEE11_M_is_localEv.exit.thread.i.i, %15
  %.pn = phi { ptr, i32 } [ %16, %15 ], [ %18, %_ZNKSt7__cxx1112basic_stringIcSt11char_traitsIcESaIcEE11_M_is_localEv.exit.thread.i.i ], [ %18, %_ZNKSt7__cxx1112basic_stringIcSt11char_traitsIcESaIcEE11_M_is_localEv.exit.i.i ]
  call void @llvm.lifetime.end.p0(i64 1, ptr nonnull %9) #11
  call void @llvm.lifetime.end.p0(i64 32, ptr nonnull %8) #11
  br label %common.resume

25:                                               ; preds = %5
  %26 = sext i32 %1 to i64
  %27 = sext i32 %2 to i64
  %28 = tail call ptr @cvCreateSeq(i32 noundef %0, i64 noundef %26, i64 noundef %27, ptr noundef nonnull %3)
  %.not = icmp eq ptr %28, null
  br i1 %.not, label %29, label %39

29:                                               ; preds = %25
  call void @llvm.lifetime.start.p0(i64 32, ptr nonnull %6) #11
  call void @llvm.lifetime.start.p0(i64 1, ptr nonnull %7) #11
  call void @_ZNSt7__cxx1112basic_stringIcSt11char_traitsIcESaIcEEC2EPKcRKS3_(ptr noundef nonnull align 8 dereferenceable(32) %6, ptr noundef nonnull @.str, ptr noundef nonnull align 1 dereferenceable(1) %7)
  invoke void @_ZN2cv5errorEiRKNSt7__cxx1112basic_stringIcSt11char_traitsIcESaIcEEEPKcS9_i(i32 noundef -27, ptr noundef nonnull align 8 dereferenceable(32) %6, ptr noundef nonnull @__func__.cvStartAppendToSeq, ptr noundef nonnull @.str.1, i32 noundef 820) #12
          to label %30 unwind label %31

30:                                               ; preds = %29
  unreachable

31:                                               ; preds = %29
  %32 = landingpad { ptr, i32 }
          cleanup
  %33 = load ptr, ptr %6, align 8, !tbaa !3
  %34 = getelementptr inbounds nuw i8, ptr %6, i64 16
  %35 = icmp eq ptr %33, %34
  br i1 %35, label %_ZNKSt7__cxx1112basic_stringIcSt11char_traitsIcESaIcEE11_M_is_localEv.exit.thread.i.i.i, label %_ZNKSt7__cxx1112basic_stringIcSt11char_traitsIcESaIcEE11_M_is_localEv.exit.i.i.i

_ZNKSt7__cxx1112basic_stringIcSt11char_traitsIcESaIcEE11_M_is_localEv.exit.thread.i.i.i: ; preds = %31
  %36 = getelementptr inbounds nuw i8, ptr %6, i64 8
  %37 = load i64, ptr %36, align 8, !tbaa !11
  %38 = icmp ult i64 %37, 16
  call void @llvm.assume(i1 %38)
  br label %_ZNSt7__cxx1112basic_stringIcSt11char_traitsIcESaIcEED2Ev.exit.i

_ZNKSt7__cxx1112basic_stringIcSt11char_traitsIcESaIcEE11_M_is_localEv.exit.i.i.i: ; preds = %31
  call void @_ZdlPv(ptr noundef %33) #13
  br label %_ZNSt7__cxx1112basic_stringIcSt11char_traitsIcESaIcEED2Ev.exit.i

_ZNSt7__cxx1112basic_stringIcSt11char_traitsIcESaIcEED2Ev.exit.i: ; preds = %_ZNKSt7__cxx1112basic_stringIcSt11char_traitsIcESaIcEE11_M_is_localEv.exit.i.i.i, %_ZNKSt7__cxx1112basic_stringIcSt11char_traitsIcESaIcEE11_M_is_localEv.exit.thread.i.i.i
  call void @llvm.lifetime.end.p0(i64 1, ptr nonnull %7) #11
  call void @llvm.lifetime.end.p0(i64 32, ptr nonnull %6) #11
  br label %common.resume

39:                                               ; preds = %25
  tail call void @llvm.memset.p0.i64(ptr noundef nonnull align 8 dereferenceable(48) %4, i8 0, i64 48, i1 false)
  store i32 48, ptr %4, align 8, !tbaa !71
  %40 = getelementptr inbounds nuw i8, ptr %4, i64 8
  store ptr %28, ptr %40, align 8, !tbaa !73
  %41 = getelementptr inbounds nuw i8, ptr %28, i64 88
  %42 = load ptr, ptr %41, align 8, !tbaa !43
  %.not.i = icmp eq ptr %42, null
  br i1 %.not.i, label %cvStartAppendToSeq.exit, label %43

43:                                               ; preds = %39
  %44 = load ptr, ptr %42, align 8, !tbaa !48
  br label %cvStartAppendToSeq.exit

cvStartAppendToSeq.exit:                          ; preds = %39, %43
  %45 = phi ptr [ %44, %43 ], [ null, %39 ]
  %46 = getelementptr inbounds nuw i8, ptr %4, i64 16
  store ptr %45, ptr %46, align 8, !tbaa !74
  %47 = getelementptr inbounds nuw i8, ptr %28, i64 56
  %48 = load ptr, ptr %47, align 8, !tbaa !69
  %49 = getelementptr inbounds nuw i8, ptr %4, i64 24
  store ptr %48, ptr %49, align 8, !tbaa !75
  %50 = getelementptr inbounds nuw i8, ptr %28, i64 48
  %51 = load ptr, ptr %50, align 8, !tbaa !70
  %52 = getelementptr inbounds nuw i8, ptr %4, i64 40
  store ptr %51, ptr %52, align 8, !tbaa !76
  ret void
}